; Function Attrs: nounwind sspstrong uwtable
define hidden range(i64 1, 0) i64 @rb_proc__fork(i64 %0) #1 {
  %2 = tail call i32 @rb_fork_ruby(ptr noundef null)
  %3 = icmp eq i32 %2, -1
  br i1 %3, label %4, label %proc_fork_pid.exit

4:                                                ; preds = %1
  %5 = tail call ptr @rb_errno_ptr() #27
  %6 = load i32, ptr %5, align 4, !tbaa !60
  tail call void @rb_syserr_fail(i32 noundef %6, ptr noundef nonnull @.str.211) #29
  unreachable

proc_fork_pid.exit:                               ; preds = %1
  %7 = sext i32 %2 to i64
  %8 = shl nsw i64 %7, 1
  %9 = or disjoint i64 %8, 1
  ret i64 %9
}